target datalayout = "e-m:e-p270:32:32-p271:32:32-p272:64:64-i64:64-i128:128-f80:128-n8:16:32:64-S128"
target triple = "x86_64-unknown-linux-gnu"

%"class.QuantLib::Parameter" = type { %"class.boost::shared_ptr.14", %"class.QuantLib::Array", %"class.QuantLib::Constraint" }
%"class.boost::shared_ptr.14" = type { ptr, %"class.boost::detail::shared_count" }
%"class.boost::detail::shared_count" = type { ptr }
%"class.QuantLib::Array" = type { %"class.std::unique_ptr", i64 }
%"class.std::unique_ptr" = type { %"struct.std::__uniq_ptr_data" }
%"struct.std::__uniq_ptr_data" = type { %"class.std::__uniq_ptr_impl" }
%"class.std::__uniq_ptr_impl" = type { %"class.std::tuple" }
%"class.std::tuple" = type { %"struct.std::_Tuple_impl" }
%"struct.std::_Tuple_impl" = type { %"struct.std::_Head_base.16" }
%"struct.std::_Head_base.16" = type { ptr }
%"class.QuantLib::Constraint" = type { %"class.boost::shared_ptr.17" }
%"class.boost::shared_ptr.17" = type { ptr, %"class.boost::detail::shared_count" }
%"class.QuantLib::LmVolatilityModel" = type { ptr, i64, %"class.std::vector" }
%"class.std::vector" = type { %"struct.std::_Vector_base" }
%"struct.std::_Vector_base" = type { %"struct.std::_Vector_base<QuantLib::Parameter, std::allocator<QuantLib::Parameter>>::_Vector_impl" }
%"struct.std::_Vector_base<QuantLib::Parameter, std::allocator<QuantLib::Parameter>>::_Vector_impl" = type { %"struct.std::_Vector_base<QuantLib::Parameter, std::allocator<QuantLib::Parameter>>::_Vector_impl_data" }
%"struct.std::_Vector_base<QuantLib::Parameter, std::allocator<QuantLib::Parameter>>::_Vector_impl_data" = type { ptr, ptr, ptr }

@.str.2 = private unnamed_addr constant [8 x i8] c"px != 0\00", align 1
@.str.3 = private unnamed_addr constant [102 x i8] c"generated/home/dtcxzyw/WorkSpace/SDK/vcpkg/installed/x64-linux/include/boost/smart_ptr/shared_ptr.hpp\00", align 1
@__PRETTY_FUNCTION__._ZNK5boost10shared_ptrIN8QuantLib9Parameter4ImplEEptEv = private unnamed_addr constant [147 x i8] c"typename boost::detail::sp_member_access<T>::type boost::shared_ptr<QuantLib::Parameter::Impl>::operator->() const [T = QuantLib::Parameter::Impl]\00", align 1

; Function Attrs: mustprogress uwtable
define linkonce_odr noundef ptr @_ZNK5boost10shared_ptrIN8QuantLib9Parameter4ImplEEptEv(ptr noundef nonnull align 8 dereferenceable(16) %this) #3 comdat align 2 {
entry:
  %this.addr = alloca ptr, align 8
  store ptr %this, ptr %this.addr, align 8, !tbaa !3
  %this1 = load ptr, ptr %this.addr, align 8
  %px = getelementptr inbounds nuw %"class.boost::shared_ptr.14", ptr %this1, i32 0, i32 0
  %0 = load ptr, ptr %px, align 8, !tbaa !46
  %cmp = icmp ne ptr %0, null
  %lnot = xor i1 %cmp, true
  %lnot2 = xor i1 %lnot, true
  %conv = zext i1 %lnot2 to i64
  %expval = call i64 @llvm.expect.i64(i64 %conv, i64 1)
  %tobool = icmp ne i64 %expval, 0
  br i1 %tobool, label %cond.true, label %cond.false

cond.true:                                        ; preds = %entry
  br label %cond.end

cond.false:                                       ; preds = %entry
  call void @_ZN5boost16assertion_failedEPKcS1_S1_l(ptr noundef @.str.2, ptr noundef @__PRETTY_FUNCTION__._ZNK5boost10shared_ptrIN8QuantLib9Parameter4ImplEEptEv, ptr noundef @.str.3, i64 noundef 784)
  br label %cond.end

cond.end:                                         ; preds = %cond.false, %cond.true
  %px3 = getelementptr inbounds nuw %"class.boost::shared_ptr.14", ptr %this1, i32 0, i32 0
  %1 = load ptr, ptr %px3, align 8, !tbaa !46
  ret ptr %1
}

; Function Attrs: mustprogress uwtable
define linkonce_odr noundef double @_ZNK8QuantLib9ParameterclEd(ptr noundef nonnull align 8 dereferenceable(48) %this, double noundef %t) #3 comdat align 2 {
entry:
  %this.addr = alloca ptr, align 8
  %t.addr = alloca double, align 8
  store ptr %this, ptr %this.addr, align 8, !tbaa !3
  store double %t, ptr %t.addr, align 8, !tbaa !7
  %this1 = load ptr, ptr %this.addr, align 8
  %impl_ = getelementptr inbounds nuw %"class.QuantLib::Parameter", ptr %this1, i32 0, i32 0
  %call = call noundef ptr @_ZNK5boost10shared_ptrIN8QuantLib9Parameter4ImplEEptEv(ptr noundef nonnull align 8 dereferenceable(16) %impl_)
  %params_ = getelementptr inbounds nuw %"class.QuantLib::Parameter", ptr %this1, i32 0, i32 1
  %0 = load double, ptr %t.addr, align 8, !tbaa !7
  %vtable = load ptr, ptr %call, align 8, !tbaa !9
  %vfn = getelementptr inbounds ptr, ptr %vtable, i64 2
  %1 = load ptr, ptr %vfn, align 8
  %call2 = call noundef double %1(ptr noundef nonnull align 8 dereferenceable(8) %call, ptr noundef nonnull align 8 dereferenceable(16) %params_, double noundef %0)
  ret double %call2
}

; Function Attrs: mustprogress nounwind uwtable
define linkonce_odr noundef nonnull align 8 dereferenceable(48) ptr @_ZNKSt6vectorIN8QuantLib9ParameterESaIS1_EEixEm(ptr noundef nonnull align 8 dereferenceable(24) %this, i64 noundef %__n) #5 comdat align 2 {
entry:
  %this.addr = alloca ptr, align 8
  %__n.addr = alloca i64, align 8
  store ptr %this, ptr %this.addr, align 8, !tbaa !3
  store i64 %__n, ptr %__n.addr, align 8, !tbaa !18
  %this1 = load ptr, ptr %this.addr, align 8
  %_M_impl = getelementptr inbounds nuw %"struct.std::_Vector_base", ptr %this1, i32 0, i32 0
  %_M_start = getelementptr inbounds nuw %"struct.std::_Vector_base<QuantLib::Parameter, std::allocator<QuantLib::Parameter>>::_Vector_impl_data", ptr %_M_impl, i32 0, i32 0
  %0 = load ptr, ptr %_M_start, align 8, !tbaa !21
  %1 = load i64, ptr %__n.addr, align 8, !tbaa !18
  %add.ptr = getelementptr inbounds nuw %"class.QuantLib::Parameter", ptr %0, i64 %1
  ret ptr %add.ptr
}

; Function Attrs: mustprogress uwtable
define noundef double @_ZNK8QuantLib30LmExtLinearExponentialVolModel18integratedVarianceEmmdRKNS_5ArrayE(ptr noundef nonnull align 8 dereferenceable(64) %this, i64 noundef %i, i64 noundef %j, double noundef %u, ptr noundef nonnull align 8 dereferenceable(16) %x) unnamed_addr #3 align 2 {
entry:
  %this.addr = alloca ptr, align 8
  %i.addr = alloca i64, align 8
  %j.addr = alloca i64, align 8
  %u.addr = alloca double, align 8
  %x.addr = alloca ptr, align 8
  store ptr %this, ptr %this.addr, align 8, !tbaa !3
  store i64 %i, ptr %i.addr, align 8, !tbaa !18
  store i64 %j, ptr %j.addr, align 8, !tbaa !18
  store double %u, ptr %u.addr, align 8, !tbaa !7
  store ptr %x, ptr %x.addr, align 8, !tbaa !3
  %this1 = load ptr, ptr %this.addr, align 8
  %arguments_ = getelementptr inbounds nuw %"class.QuantLib::LmVolatilityModel", ptr %this1, i32 0, i32 2
  %0 = load i64, ptr %i.addr, align 8, !tbaa !18
  %add = add i64 %0, 4
  %call = call noundef nonnull align 8 dereferenceable(48) ptr @_ZNKSt6vectorIN8QuantLib9ParameterESaIS1_EEixEm(ptr noundef nonnull align 8 dereferenceable(24) %arguments_, i64 noundef %add) #16
  %call2 = call noundef double @_ZNK8QuantLib9ParameterclEd(ptr noundef nonnull align 8 dereferenceable(48) %call, double noundef 0.000000e+00)
  %arguments_3 = getelementptr inbounds nuw %"class.QuantLib::LmVolatilityModel", ptr %this1, i32 0, i32 2
  %1 = load i64, ptr %j.addr, align 8, !tbaa !18
  %add4 = add i64 %1, 4
  %call5 = call noundef nonnull align 8 dereferenceable(48) ptr @_ZNKSt6vectorIN8QuantLib9ParameterESaIS1_EEixEm(ptr noundef nonnull align 8 dereferenceable(24) %arguments_3, i64 noundef %add4) #16
  %call6 = call noundef double @_ZNK8QuantLib9ParameterclEd(ptr noundef nonnull align 8 dereferenceable(48) %call5, double noundef 0.000000e+00)
  %mul = fmul double %call2, %call6
  %2 = load i64, ptr %i.addr, align 8, !tbaa !18
  %3 = load i64, ptr %j.addr, align 8, !tbaa !18
  %4 = load double, ptr %u.addr, align 8, !tbaa !7
  %5 = load ptr, ptr %x.addr, align 8, !tbaa !3
  %call7 = call noundef double @_ZNK8QuantLib34LmLinearExponentialVolatilityModel18integratedVarianceEmmdRKNS_5ArrayE(ptr noundef nonnull align 8 dereferenceable(64) %this1, i64 noundef %2, i64 noundef %3, double noundef %4, ptr noundef nonnull align 8 dereferenceable(16) %5)
  %mul8 = fmul double %mul, %call7
  ret double %mul8
}