; Function Attrs: mustprogress uwtable
define noundef double @_ZNK8QuantLib30LmExtLinearExponentialVolModel18integratedVarianceEmmdRKNS_5ArrayE(ptr noundef nonnull align 8 dereferenceable(64) %this, i64 noundef %i, i64 noundef %j, double noundef %u, ptr noundef nonnull align 8 dereferenceable(16) %x) unnamed_addr #3 align 2 {
entry:
  %arguments_ = getelementptr inbounds nuw i8, ptr %this, i64 16
  %0 = load ptr, ptr %arguments_, align 8, !tbaa !16
  %1 = getelementptr %"class.QuantLib::Parameter", ptr %0, i64 %i
  %add.ptr.i = getelementptr i8, ptr %1, i64 192
  %2 = load ptr, ptr %add.ptr.i, align 8, !tbaa !17
  %cmp.not.i.i = icmp eq ptr %2, null
  br i1 %cmp.not.i.i, label %cond.false.i.i, label %_ZNK8QuantLib9ParameterclEd.exit, !prof !37

cond.false.i.i:                                   ; preds = %entry
  tail call void @_ZN5boost16assertion_failedEPKcS1_S1_l(ptr noundef nonnull @.str.2, ptr noundef nonnull @__PRETTY_FUNCTION__._ZNK5boost10shared_ptrIN8QuantLib9Parameter4ImplEEptEv, ptr noundef nonnull @.str.3, i64 noundef 784)
  %.pre.i.i = load ptr, ptr %add.ptr.i, align 8, !tbaa !17
  br label %_ZNK8QuantLib9ParameterclEd.exit

_ZNK8QuantLib9ParameterclEd.exit:                 ; preds = %entry, %cond.false.i.i
  %3 = phi ptr [ %2, %entry ], [ %.pre.i.i, %cond.false.i.i ]
  %params_.i = getelementptr i8, ptr %1, i64 208
  %vtable.i = load ptr, ptr %3, align 8, !tbaa !3
  %vfn.i = getelementptr inbounds i8, ptr %vtable.i, i64 16
  %4 = load ptr, ptr %vfn.i, align 8
  %call2.i = tail call noundef double %4(ptr noundef nonnull align 8 dereferenceable(8) %3, ptr noundef nonnull align 8 dereferenceable(16) %params_.i, double noundef 0.000000e+00)
  %5 = load ptr, ptr %arguments_, align 8, !tbaa !16
  %6 = getelementptr %"class.QuantLib::Parameter", ptr %5, i64 %j
  %add.ptr.i3 = getelementptr i8, ptr %6, i64 192
  %7 = load ptr, ptr %add.ptr.i3, align 8, !tbaa !17
  %cmp.not.i.i4 = icmp eq ptr %7, null
  br i1 %cmp.not.i.i4, label %cond.false.i.i9, label %_ZNK8QuantLib9ParameterclEd.exit11, !prof !37

cond.false.i.i9:                                  ; preds = %_ZNK8QuantLib9ParameterclEd.exit
  tail call void @_ZN5boost16assertion_failedEPKcS1_S1_l(ptr noundef nonnull @.str.2, ptr noundef nonnull @__PRETTY_FUNCTION__._ZNK5boost10shared_ptrIN8QuantLib9Parameter4ImplEEptEv, ptr noundef nonnull @.str.3, i64 noundef 784)
  %.pre.i.i10 = load ptr, ptr %add.ptr.i3, align 8, !tbaa !17
  br label %_ZNK8QuantLib9ParameterclEd.exit11

_ZNK8QuantLib9ParameterclEd.exit11:               ; preds = %_ZNK8QuantLib9ParameterclEd.exit, %cond.false.i.i9
  %8 = phi ptr [ %7, %_ZNK8QuantLib9ParameterclEd.exit ], [ %.pre.i.i10, %cond.false.i.i9 ]
  %params_.i5 = getelementptr i8, ptr %6, i64 208
  %vtable.i6 = load ptr, ptr %8, align 8, !tbaa !3
  %vfn.i7 = getelementptr inbounds i8, ptr %vtable.i6, i64 16
  %9 = load ptr, ptr %vfn.i7, align 8
  %call2.i8 = tail call noundef double %9(ptr noundef nonnull align 8 dereferenceable(8) %8, ptr noundef nonnull align 8 dereferenceable(16) %params_.i5, double noundef 0.000000e+00)
  %mul = fmul double %call2.i, %call2.i8
  %call7 = tail call noundef double @_ZNK8QuantLib34LmLinearExponentialVolatilityModel18integratedVarianceEmmdRKNS_5ArrayE(ptr noundef nonnull align 8 dereferenceable(64) %this, i64 noundef %i, i64 noundef %j, double noundef %u, ptr noundef nonnull align 8 dereferenceable(16) %x)
  %mul8 = fmul double %mul, %call7
  ret double %mul8
}